; Function Attrs: mustprogress nofree nounwind uwtable
define hidden noundef i32 @_ZN2cv8datasets13TRACK_votImpl16getDatasetLengthEi(ptr nocapture noundef nonnull readonly align 8 dereferenceable(136) %0, i32 noundef %1) unnamed_addr #8 align 2 {
  %3 = icmp sgt i32 %1, 0
  br i1 %3, label %4, label %._crit_edge

._crit_edge:                                      ; preds = %2
  %.phi.trans.insert = getelementptr inbounds i8, ptr %0, i64 112
  %.pre = load ptr, ptr %.phi.trans.insert, align 8
  %.phi.trans.insert5 = getelementptr inbounds i8, ptr %0, i64 104
  %.pre6 = load ptr, ptr %.phi.trans.insert5, align 8
  %.pre7 = ptrtoint ptr %.pre to i64
  %.pre8 = ptrtoint ptr %.pre6 to i64
  %.pre10 = sub i64 %.pre7, %.pre8
  %.pre12 = sdiv exact i64 %.pre10, 24
  %.pre14 = trunc i64 %.pre12 to i32
  br label %26

4:                                                ; preds = %2
  %5 = getelementptr inbounds i8, ptr %0, i64 104
  %6 = getelementptr inbounds i8, ptr %0, i64 112
  %7 = load ptr, ptr %6, align 8
  %8 = load ptr, ptr %5, align 8
  %9 = ptrtoint ptr %7 to i64
  %10 = ptrtoint ptr %8 to i64
  %11 = sub i64 %9, %10
  %12 = sdiv exact i64 %11, 24
  %13 = trunc i64 %12 to i32
  %.not = icmp slt i32 %13, %1
  br i1 %.not, label %26, label %14

14:                                               ; preds = %4
  %15 = zext nneg i32 %1 to i64
  %16 = getelementptr %"class.std::vector.19", ptr %8, i64 %15
  %17 = getelementptr i8, ptr %16, i64 -24
  %18 = getelementptr i8, ptr %16, i64 -16
  %19 = load ptr, ptr %18, align 8
  %20 = load ptr, ptr %17, align 8
  %21 = ptrtoint ptr %19 to i64
  %22 = ptrtoint ptr %20 to i64
  %23 = sub i64 %21, %22
  %24 = lshr exact i64 %23, 4
  %25 = trunc i64 %24 to i32
  br label %28

26:                                               ; preds = %._crit_edge, %4
  %.pre-phi15 = phi i32 [ %.pre14, %._crit_edge ], [ %13, %4 ]
  %27 = tail call i32 (ptr, ...) @printf(ptr noundef nonnull dereferenceable(1) @.str.10, i32 noundef %.pre-phi15)
  br label %28

28:                                               ; preds = %26, %14
  %.0 = phi i32 [ %25, %14 ], [ -1, %26 ]
  ret i32 %.0
}